target datalayout = "e-m:e-p270:32:32-p271:32:32-p272:64:64-i64:64-i128:128-f80:128-n8:16:32:64-S128"
target triple = "x86_64-pc-linux-gnu"

%"class.std::filesystem::__cxx11::path" = type { %"class.std::__cxx11::basic_string", %"struct.std::filesystem::__cxx11::path::_List" }
%"class.std::__cxx11::basic_string" = type { %"struct.std::__cxx11::basic_string<char>::_Alloc_hider", i64, %union.anon }
%"struct.std::__cxx11::basic_string<char>::_Alloc_hider" = type { ptr }
%union.anon = type { i64, [8 x i8] }
%"struct.std::filesystem::__cxx11::path::_List" = type { %"class.std::unique_ptr" }
%"class.std::unique_ptr" = type { %"struct.std::__uniq_ptr_data" }
%"struct.std::__uniq_ptr_data" = type { %"class.std::__uniq_ptr_impl" }
%"class.std::__uniq_ptr_impl" = type { %"class.std::tuple" }
%"class.std::tuple" = type { %"struct.std::_Tuple_impl" }
%"struct.std::_Tuple_impl" = type { %"struct.std::_Head_base.1" }
%"struct.std::_Head_base.1" = type { ptr }

@.str.1 = private unnamed_addr constant [6 x i8] c"check\00", align 1
@.str.2 = private unnamed_addr constant [5 x i8] c"atom\00", align 1
@.str.5 = private unnamed_addr constant [12 x i8] c"WARNING: %s\00", align 1
@.str.6 = private unnamed_addr constant [3 x i8] c"%s\00", align 1

; Function Attrs: mustprogress uwtable
define internal void @_ZL14atom_not_foundiPKciS0_iS0_S0_b(i32 noundef %0, ptr noundef %1, i32 noundef %2, ptr noundef %3, i32 noundef %4, ptr noundef %5, ptr noundef %6, i1 noundef zeroext %7) #0 personality ptr @__gxx_personality_v0 {
  %9 = alloca i32, align 4
  %10 = alloca ptr, align 8
  %11 = alloca i32, align 4
  %12 = alloca ptr, align 8
  %13 = alloca i32, align 4
  %14 = alloca ptr, align 8
  %15 = alloca ptr, align 8
  %16 = alloca i8, align 1
  %17 = alloca [1024 x i8], align 16
  %18 = alloca %"class.std::filesystem::__cxx11::path", align 8
  %19 = alloca ptr, align 8
  %20 = alloca i32, align 4
  store i32 %0, ptr %9, align 4, !tbaa !9
  store ptr %1, ptr %10, align 8, !tbaa !4
  store i32 %2, ptr %11, align 4, !tbaa !9
  store ptr %3, ptr %12, align 8, !tbaa !4
  store i32 %4, ptr %13, align 4, !tbaa !9
  store ptr %5, ptr %14, align 8, !tbaa !4
  store ptr %6, ptr %15, align 8, !tbaa !4
  %21 = zext i1 %7 to i8
  store i8 %21, ptr %16, align 1, !tbaa !13
  call void @llvm.lifetime.start.p0(i64 1024, ptr %17) #13
  %22 = load ptr, ptr %15, align 8, !tbaa !4
  %23 = call i32 @strcmp(ptr noundef %22, ptr noundef @.str.1) #14
  %24 = icmp ne i32 %23, 0
  br i1 %24, label %25, label %59

25:                                               ; preds = %8
  %26 = load ptr, ptr %15, align 8, !tbaa !4
  %27 = call i32 @strcmp(ptr noundef %26, ptr noundef @.str.2) #14
  %28 = icmp ne i32 0, %27
  br i1 %28, label %29, label %37

29:                                               ; preds = %25
  %30 = getelementptr inbounds [1024 x i8], ptr %17, i64 0, i64 0
  %31 = load i32, ptr %13, align 4, !tbaa !9
  %32 = add nsw i32 %31, 1
  %33 = load ptr, ptr %14, align 8, !tbaa !4
  %34 = load ptr, ptr %12, align 8, !tbaa !4
  %35 = load ptr, ptr %15, align 8, !tbaa !4
  %36 = call i32 (ptr, i64, ptr, ...) @snprintf(ptr noundef %30, i64 noundef 1024, ptr noundef @.str.3, i32 noundef %32, ptr noundef %33, ptr noundef %34, ptr noundef %35) #13
  br label %44

37:                                               ; preds = %25
  %38 = getelementptr inbounds [1024 x i8], ptr %17, i64 0, i64 0
  %39 = load i32, ptr %13, align 4, !tbaa !9
  %40 = add nsw i32 %39, 1
  %41 = load ptr, ptr %14, align 8, !tbaa !4
  %42 = load ptr, ptr %12, align 8, !tbaa !4
  %43 = call i32 (ptr, i64, ptr, ...) @snprintf(ptr noundef %38, i64 noundef 1024, ptr noundef @.str.4, i32 noundef %40, ptr noundef %41, ptr noundef %42) #13
  br label %44

44:                                               ; preds = %37, %29
  %45 = load i8, ptr %16, align 1, !tbaa !13, !range !27, !noundef !28
  %46 = trunc i8 %45 to i1
  br i1 %46, label %47, label %49

47:                                               ; preds = %44
  %48 = getelementptr inbounds [1024 x i8], ptr %17, i64 0, i64 0
  call void (ptr, ...) @_Z11gmx_warningPKcz(ptr noundef @.str.5, ptr noundef %48)
  br label %58

49:                                               ; preds = %44
  %50 = load i32, ptr %9, align 4, !tbaa !9
  call void @llvm.lifetime.start.p0(i64 40, ptr %18) #13
  call void @_ZNSt10filesystem7__cxx114pathC2IPKcS1_EERKT_NS1_6formatE(ptr noundef nonnull align 8 dereferenceable(40) %18, ptr noundef nonnull align 8 dereferenceable(8) %10, i8 noundef zeroext 2)
  %51 = load i32, ptr %11, align 4, !tbaa !9
  %52 = getelementptr inbounds [1024 x i8], ptr %17, i64 0, i64 0
  invoke void (i32, ptr, i32, ptr, ...) @_Z9gmx_fataliRKNSt10filesystem7__cxx114pathEiPKcz(i32 noundef %50, ptr noundef nonnull align 8 dereferenceable(40) %18, i32 noundef %51, ptr noundef @.str.6, ptr noundef %52) #16
          to label %53 unwind label %54

53:                                               ; preds = %49
  unreachable

54:                                               ; preds = %49
  %55 = landingpad { ptr, i32 }
          cleanup
  %56 = extractvalue { ptr, i32 } %55, 0
  store ptr %56, ptr %19, align 8
  %57 = extractvalue { ptr, i32 } %55, 1
  store i32 %57, ptr %20, align 4
  call void @_ZNSt10filesystem7__cxx114pathD2Ev(ptr noundef nonnull align 8 dereferenceable(40) %18) #13
  call void @llvm.lifetime.end.p0(i64 40, ptr %18) #13
  call void @llvm.lifetime.end.p0(i64 1024, ptr %17) #13
  br label %60

58:                                               ; preds = %47
  br label %59

59:                                               ; preds = %58, %8
  call void @llvm.lifetime.end.p0(i64 1024, ptr %17) #13
  ret void

60:                                               ; preds = %54
  %61 = load ptr, ptr %19, align 8
  %62 = load i32, ptr %20, align 4
  %63 = insertvalue { ptr, i32 } poison, ptr %61, 0
  %64 = insertvalue { ptr, i32 } %63, i32 %62, 1
  resume { ptr, i32 } %64
}