; Function Attrs: mustprogress uwtable
define internal fastcc void @_ZL14atom_not_foundiPKciS0_iS0_S0_b(i32 noundef range(i32 156, 196) %0, ptr noundef %1, i32 noundef %2, ptr noundef %3, ptr noundef %4, i1 noundef zeroext %5) unnamed_addr #0 personality ptr @__gxx_personality_v0 {
  %7 = alloca ptr, align 8
  %8 = alloca [1024 x i8], align 16
  %9 = alloca %"class.std::filesystem::__cxx11::path", align 8
  store ptr @.str, ptr %7, align 8, !tbaa !31
  call void @llvm.lifetime.start.p0(i64 1024, ptr nonnull %8) #13
  %10 = tail call i32 @strcmp(ptr noundef nonnull dereferenceable(1) %4, ptr noundef nonnull dereferenceable(6) @.str.1) #12
  %.not = icmp eq i32 %10, 0
  br i1 %.not, label %24, label %11

11:                                               ; preds = %6
  %12 = tail call i32 @strcmp(ptr noundef nonnull dereferenceable(1) %4, ptr noundef nonnull dereferenceable(5) @.str.2) #12
  %.not13 = icmp eq i32 %12, 0
  %13 = add nsw i32 %2, 1
  br i1 %.not13, label %16, label %14

14:                                               ; preds = %11
  %15 = call i32 (ptr, i64, ptr, ...) @snprintf(ptr noundef nonnull dereferenceable(1) %8, i64 noundef 1024, ptr noundef nonnull @.str.3, i32 noundef %13, ptr noundef %3, ptr noundef %1, ptr noundef nonnull %4) #13
  br label %18

16:                                               ; preds = %11
  %17 = call i32 (ptr, i64, ptr, ...) @snprintf(ptr noundef nonnull dereferenceable(1) %8, i64 noundef 1024, ptr noundef nonnull @.str.4, i32 noundef %13, ptr noundef %3, ptr noundef %1) #13
  br label %18

18:                                               ; preds = %16, %14
  br i1 %5, label %19, label %20

19:                                               ; preds = %18
  call void (ptr, ...) @_Z11gmx_warningPKcz(ptr noundef nonnull @.str.5, ptr noundef nonnull %8)
  br label %24

20:                                               ; preds = %18
  call void @llvm.lifetime.start.p0(i64 40, ptr nonnull %9) #13
  call void @_ZNSt10filesystem7__cxx114pathC2IPKcS1_EERKT_NS1_6formatE(ptr noundef nonnull align 8 dereferenceable(40) %9, ptr noundef nonnull align 8 dereferenceable(8) %7, i8 noundef zeroext 2)
  invoke void (i32, ptr, i32, ptr, ...) @_Z9gmx_fataliRKNSt10filesystem7__cxx114pathEiPKcz(i32 noundef 0, ptr noundef nonnull align 8 dereferenceable(40) %9, i32 noundef %0, ptr noundef nonnull @.str.6, ptr noundef nonnull %8) #14
          to label %21 unwind label %22

21:                                               ; preds = %20
  unreachable

22:                                               ; preds = %20
  %23 = landingpad { ptr, i32 }
          cleanup
  call void @_ZNSt10filesystem7__cxx114pathD2Ev(ptr noundef nonnull align 8 dereferenceable(40) %9) #13
  call void @llvm.lifetime.end.p0(i64 40, ptr nonnull %9) #13
  call void @llvm.lifetime.end.p0(i64 1024, ptr nonnull %8) #13
  resume { ptr, i32 } %23

24:                                               ; preds = %19, %6
  call void @llvm.lifetime.end.p0(i64 1024, ptr nonnull %8) #13
  ret void
}